target datalayout = "e-m:e-p270:32:32-p271:32:32-p272:64:64-i64:64-i128:128-f80:128-n8:16:32:64-S128"
target triple = "x86_64-pc-linux-gnu"

%struct.ossl_cmp_ctx_st = type { ptr, ptr, ptr, i32, ptr, ptr, ptr, ptr, ptr, i32, ptr, ptr, i32, i32, i32, i32, i64, ptr, ptr, i32, i32, ptr, ptr, ptr, ptr, ptr, i32, i32, i32, ptr, ptr, ptr, ptr, ptr, i64, ptr, i32, i32, ptr, ptr, ptr, ptr, ptr, ptr, ptr, ptr, i32, i32, ptr, ptr, i32, ptr, ptr, i32, ptr, ptr, i32, i32, ptr, ptr, i32, i32, ptr, ptr, i32, ptr, i32, ptr, i32, ptr, ptr, ptr, ptr, ptr, ptr }

@.str = private unnamed_addr constant [32 x i8] c"../openssl/crypto/cmp/cmp_vfy.c\00", align 1
@.str.2 = private unnamed_addr constant [3 x i8] c"%s\00", align 1
@.str.7 = private unnamed_addr constant [5 x i8] c"WARN\00", align 1
@__func__.check_cert_path = private unnamed_addr constant [16 x i8] c"check_cert_path\00", align 1
@.str.44 = private unnamed_addr constant [56 x i8] c"msg signature validates but cert path validation failed\00", align 1
@__func__.check_msg_with_certs = private unnamed_addr constant [21 x i8] c"check_msg_with_certs\00", align 1
@.str.54 = private unnamed_addr constant [6 x i8] c"no %s\00", align 1
@.str.55 = private unnamed_addr constant [10 x i8] c"cert from\00", align 1
@.str.56 = private unnamed_addr constant [33 x i8] c"no acceptable cert in extraCerts\00", align 1

; Function Attrs: nounwind uwtable
define internal i32 @check_cert_path(ptr noundef %0, ptr noundef %1, ptr noundef %2) #0 {
  %4 = alloca i32, align 4
  %5 = alloca ptr, align 8
  %6 = alloca ptr, align 8
  %7 = alloca ptr, align 8
  store ptr %0, ptr %5, align 8, !tbaa !3
  store ptr %1, ptr %6, align 8, !tbaa !8
  store ptr %2, ptr %7, align 8, !tbaa !10
  %8 = load ptr, ptr %5, align 8, !tbaa !3
  %9 = load ptr, ptr %6, align 8, !tbaa !8
  %10 = load ptr, ptr %7, align 8, !tbaa !10
  %11 = call i32 @OSSL_CMP_validate_cert_path(ptr noundef %8, ptr noundef %9, ptr noundef %10)
  %12 = icmp ne i32 %11, 0
  br i1 %12, label %13, label %14

13:                                               ; preds = %3
  store i32 1, ptr %4, align 4
  br label %17

14:                                               ; preds = %3
  %15 = load ptr, ptr %5, align 8, !tbaa !3
  %16 = call i32 (i32, ptr, ptr, ptr, i32, ptr, ptr, ...) @ossl_cmp_print_log(i32 noundef 4, ptr noundef %15, ptr noundef @__func__.check_cert_path, ptr noundef @.str, i32 noundef 315, ptr noundef @.str.7, ptr noundef @.str.2, ptr noundef @.str.44)
  store i32 0, ptr %4, align 4
  br label %17

17:                                               ; preds = %14, %13
  %18 = load i32, ptr %4, align 4
  ret i32 %18
}

; Function Attrs: inlinehint nounwind uwtable
define internal ptr @ossl_check_const_X509_sk_type(ptr noundef %0) #3 {
  %2 = alloca ptr, align 8
  store ptr %0, ptr %2, align 8, !tbaa !56
  %3 = load ptr, ptr %2, align 8, !tbaa !56
  ret ptr %3
}

; Function Attrs: nounwind uwtable
define internal i32 @check_msg_with_certs(ptr noundef %0, ptr noundef %1, ptr noundef %2, ptr noundef %3, ptr noundef %4, ptr noundef %5, i32 noundef %6) #0 {
  %8 = alloca i32, align 4
  %9 = alloca ptr, align 8
  %10 = alloca ptr, align 8
  %11 = alloca ptr, align 8
  %12 = alloca ptr, align 8
  %13 = alloca ptr, align 8
  %14 = alloca ptr, align 8
  %15 = alloca i32, align 4
  %16 = alloca i32, align 4
  %17 = alloca i32, align 4
  %18 = alloca i32, align 4
  %19 = alloca i32, align 4
  %20 = alloca ptr, align 8
  store ptr %0, ptr %9, align 8, !tbaa !3
  store ptr %1, ptr %10, align 8, !tbaa !56
  store ptr %2, ptr %11, align 8, !tbaa !64
  store ptr %3, ptr %12, align 8, !tbaa !56
  store ptr %4, ptr %13, align 8, !tbaa !56
  store ptr %5, ptr %14, align 8, !tbaa !36
  store i32 %6, ptr %15, align 4, !tbaa !12
  call void @llvm.lifetime.start.p0(i64 4, ptr %16) #5
  %21 = load ptr, ptr %12, align 8, !tbaa !56
  %22 = icmp eq ptr %21, null
  %23 = zext i1 %22 to i32
  store i32 %23, ptr %16, align 4, !tbaa !12
  call void @llvm.lifetime.start.p0(i64 4, ptr %17) #5
  store i32 0, ptr %17, align 4, !tbaa !12
  call void @llvm.lifetime.start.p0(i64 4, ptr %18) #5
  %24 = load ptr, ptr %10, align 8, !tbaa !56
  %25 = call ptr @ossl_check_const_X509_sk_type(ptr noundef %24)
  %26 = call i32 @OPENSSL_sk_num(ptr noundef %25)
  %27 = icmp sle i32 %26, 0
  br i1 %27, label %28, label %32

28:                                               ; preds = %7
  %29 = load ptr, ptr %9, align 8, !tbaa !3
  %30 = load ptr, ptr %11, align 8, !tbaa !64
  %31 = call i32 (i32, ptr, ptr, ptr, i32, ptr, ptr, ...) @ossl_cmp_print_log(i32 noundef 4, ptr noundef %29, ptr noundef @__func__.check_msg_with_certs, ptr noundef @.str, i32 noundef 393, ptr noundef @.str.7, ptr noundef @.str.54, ptr noundef %30)
  store i32 0, ptr %8, align 4
  store i32 1, ptr %19, align 4
  br label %105

32:                                               ; preds = %7
  store i32 0, ptr %18, align 4, !tbaa !12
  br label %33

33:                                               ; preds = %92, %32
  %34 = load i32, ptr %18, align 4, !tbaa !12
  %35 = load ptr, ptr %10, align 8, !tbaa !56
  %36 = call ptr @ossl_check_const_X509_sk_type(ptr noundef %35)
  %37 = call i32 @OPENSSL_sk_num(ptr noundef %36)
  %38 = icmp slt i32 %34, %37
  br i1 %38, label %39, label %95

39:                                               ; preds = %33
  call void @llvm.lifetime.start.p0(i64 8, ptr %20) #5
  %40 = load ptr, ptr %10, align 8, !tbaa !56
  %41 = call ptr @ossl_check_const_X509_sk_type(ptr noundef %40)
  %42 = load i32, ptr %18, align 4, !tbaa !12
  %43 = call ptr @OPENSSL_sk_value(ptr noundef %41, i32 noundef %42)
  store ptr %43, ptr %20, align 8, !tbaa !10
  %44 = load ptr, ptr %20, align 8, !tbaa !10
  %45 = icmp ne ptr %44, null
  %46 = zext i1 %45 to i32
  %47 = icmp ne i32 %46, 0
  %48 = xor i1 %47, true
  %49 = xor i1 %48, true
  %50 = zext i1 %49 to i32
  %51 = sext i32 %50 to i64
  %52 = call i64 @llvm.expect.i64(i64 %51, i64 1)
  %53 = icmp ne i64 %52, 0
  br i1 %53, label %55, label %54

54:                                               ; preds = %39
  store i32 0, ptr %8, align 4
  store i32 1, ptr %19, align 4
  br label %89

55:                                               ; preds = %39
  %56 = load ptr, ptr %9, align 8, !tbaa !3
  %57 = load ptr, ptr %11, align 8, !tbaa !64
  %58 = load ptr, ptr %20, align 8, !tbaa !10
  %59 = load ptr, ptr %12, align 8, !tbaa !56
  %60 = load ptr, ptr %13, align 8, !tbaa !56
  %61 = load ptr, ptr %14, align 8, !tbaa !36
  %62 = call i32 @cert_acceptable(ptr noundef %56, ptr noundef @.str.55, ptr noundef %57, ptr noundef %58, ptr noundef %59, ptr noundef %60, ptr noundef %61)
  %63 = icmp ne i32 %62, 0
  br i1 %63, label %65, label %64

64:                                               ; preds = %55
  store i32 4, ptr %19, align 4
  br label %89

65:                                               ; preds = %55
  %66 = load i32, ptr %17, align 4, !tbaa !12
  %67 = add nsw i32 %66, 1
  store i32 %67, ptr %17, align 4, !tbaa !12
  %68 = load i32, ptr %15, align 4, !tbaa !12
  %69 = icmp ne i32 %68, 0
  br i1 %69, label %70, label %76

70:                                               ; preds = %65
  %71 = load ptr, ptr %9, align 8, !tbaa !3
  %72 = load ptr, ptr %14, align 8, !tbaa !36
  %73 = load ptr, ptr %20, align 8, !tbaa !10
  %74 = call i32 @check_cert_path_3gpp(ptr noundef %71, ptr noundef %72, ptr noundef %73)
  %75 = icmp ne i32 %74, 0
  br i1 %75, label %84, label %88

76:                                               ; preds = %65
  %77 = load ptr, ptr %9, align 8, !tbaa !3
  %78 = load ptr, ptr %9, align 8, !tbaa !3
  %79 = getelementptr inbounds nuw %struct.ossl_cmp_ctx_st, ptr %78, i32 0, i32 24
  %80 = load ptr, ptr %79, align 8, !tbaa !51
  %81 = load ptr, ptr %20, align 8, !tbaa !10
  %82 = call i32 @check_cert_path(ptr noundef %77, ptr noundef %80, ptr noundef %81)
  %83 = icmp ne i32 %82, 0
  br i1 %83, label %84, label %88

84:                                               ; preds = %76, %70
  %85 = load ptr, ptr %9, align 8, !tbaa !3
  %86 = load ptr, ptr %20, align 8, !tbaa !10
  %87 = call i32 @ossl_cmp_ctx_set1_validatedSrvCert(ptr noundef %85, ptr noundef %86)
  store i32 %87, ptr %8, align 4
  store i32 1, ptr %19, align 4
  br label %89

88:                                               ; preds = %76, %70
  store i32 0, ptr %19, align 4
  br label %89

89:                                               ; preds = %88, %84, %64, %54
  call void @llvm.lifetime.end.p0(i64 8, ptr %20) #5
  %90 = load i32, ptr %19, align 4
  switch i32 %90, label %105 [
    i32 0, label %91
    i32 4, label %92
  ]

91:                                               ; preds = %89
  br label %92

92:                                               ; preds = %91, %89
  %93 = load i32, ptr %18, align 4, !tbaa !12
  %94 = add nsw i32 %93, 1
  store i32 %94, ptr %18, align 4, !tbaa !12
  br label %33, !llvm.loop !100

95:                                               ; preds = %33
  %96 = load i32, ptr %16, align 4, !tbaa !12
  %97 = icmp ne i32 %96, 0
  br i1 %97, label %98, label %104

98:                                               ; preds = %95
  %99 = load i32, ptr %17, align 4, !tbaa !12
  %100 = icmp eq i32 %99, 0
  br i1 %100, label %101, label %104

101:                                              ; preds = %98
  %102 = load ptr, ptr %9, align 8, !tbaa !3
  %103 = call i32 (i32, ptr, ptr, ptr, i32, ptr, ptr, ...) @ossl_cmp_print_log(i32 noundef 4, ptr noundef %102, ptr noundef @__func__.check_msg_with_certs, ptr noundef @.str, i32 noundef 413, ptr noundef @.str.7, ptr noundef @.str.2, ptr noundef @.str.56)
  br label %104

104:                                              ; preds = %101, %98, %95
  store i32 0, ptr %8, align 4
  store i32 1, ptr %19, align 4
  br label %105

105:                                              ; preds = %104, %89, %28
  call void @llvm.lifetime.end.p0(i64 4, ptr %18) #5
  call void @llvm.lifetime.end.p0(i64 4, ptr %17) #5
  call void @llvm.lifetime.end.p0(i64 4, ptr %16) #5
  %106 = load i32, ptr %8, align 4
  ret i32 %106
}