; Function Attrs: nounwind uwtable
define internal fastcc i32 @check_msg_with_certs(ptr noundef nonnull %0, ptr noundef %1, ptr noundef %2, ptr noundef %3, ptr noundef %4, ptr noundef nonnull readonly captures(none) %5, i32 noundef range(i32 0, 2) %6) unnamed_addr #0 {
  %8 = icmp eq ptr %3, null
  %9 = tail call i32 @OPENSSL_sk_num(ptr noundef %1) #3
  %10 = icmp slt i32 %9, 1
  br i1 %10, label %26, label %.preheader

.preheader:                                       ; preds = %7
  %11 = tail call i32 @OPENSSL_sk_num(ptr noundef %1) #3
  %12 = icmp sgt i32 %11, 0
  br i1 %12, label %.lr.ph, label %._crit_edge

.lr.ph:                                           ; preds = %.preheader
  %.not37 = icmp eq i32 %6, 0
  %13 = getelementptr inbounds nuw i8, ptr %0, i64 168
  br i1 %.not37, label %.lr.ph.split.us, label %.lr.ph.split

.lr.ph.split.us:                                  ; preds = %.lr.ph, %22
  %.03251.us = phi i32 [ %23, %22 ], [ 0, %.lr.ph ]
  %.03350.us = phi i32 [ %.134.ph.us, %22 ], [ 0, %.lr.ph ]
  %14 = tail call ptr @OPENSSL_sk_value(ptr noundef %1, i32 noundef %.03251.us) #3
  %.not.us = icmp eq ptr %14, null
  br i1 %.not.us, label %.loopexit, label %15, !prof !59

15:                                               ; preds = %.lr.ph.split.us
  %16 = tail call fastcc i32 @cert_acceptable(ptr noundef %0, ptr noundef nonnull @.str.55, ptr noundef %2, ptr noundef %14, ptr noundef %3, ptr noundef %4, ptr noundef %5)
  %.not36.us = icmp eq i32 %16, 0
  br i1 %.not36.us, label %22, label %17

17:                                               ; preds = %15
  %18 = load ptr, ptr %13, align 8, !tbaa !41
  %19 = tail call i32 @OSSL_CMP_validate_cert_path(ptr noundef nonnull %0, ptr noundef %18, ptr noundef nonnull %14)
  %.not.i.us = icmp eq i32 %19, 0
  br i1 %.not.i.us, label %check_cert_path.exit.thread.us, label %check_cert_path.exit

check_cert_path.exit.thread.us:                   ; preds = %17
  %20 = add nsw i32 %.03350.us, 1
  %21 = tail call i32 (i32, ptr, ptr, ptr, i32, ptr, ptr, ...) @ossl_cmp_print_log(i32 noundef 4, ptr noundef nonnull %0, ptr noundef nonnull @__func__.check_cert_path, ptr noundef nonnull @.str, i32 noundef 315, ptr noundef nonnull @.str.7, ptr noundef nonnull @.str.2, ptr noundef nonnull @.str.44) #3
  br label %22

22:                                               ; preds = %check_cert_path.exit.thread.us, %15
  %.134.ph.us = phi i32 [ %20, %check_cert_path.exit.thread.us ], [ %.03350.us, %15 ]
  %23 = add nuw nsw i32 %.03251.us, 1
  %24 = tail call i32 @OPENSSL_sk_num(ptr noundef %1) #3
  %25 = icmp slt i32 %23, %24
  br i1 %25, label %.lr.ph.split.us, label %._crit_edge, !llvm.loop !76

26:                                               ; preds = %7
  %27 = tail call i32 (i32, ptr, ptr, ptr, i32, ptr, ptr, ...) @ossl_cmp_print_log(i32 noundef 4, ptr noundef nonnull %0, ptr noundef nonnull @__func__.check_msg_with_certs, ptr noundef nonnull @.str, i32 noundef 393, ptr noundef nonnull @.str.7, ptr noundef nonnull @.str.54, ptr noundef %2) #3
  br label %.loopexit

.lr.ph.split:                                     ; preds = %.lr.ph, %35
  %.03251 = phi i32 [ %36, %35 ], [ 0, %.lr.ph ]
  %.03350 = phi i32 [ %.134.ph, %35 ], [ 0, %.lr.ph ]
  %28 = tail call ptr @OPENSSL_sk_value(ptr noundef %1, i32 noundef %.03251) #3
  %.not = icmp eq ptr %28, null
  br i1 %.not, label %.loopexit, label %29, !prof !59

29:                                               ; preds = %.lr.ph.split
  %30 = tail call fastcc i32 @cert_acceptable(ptr noundef %0, ptr noundef nonnull @.str.55, ptr noundef %2, ptr noundef %28, ptr noundef %3, ptr noundef %4, ptr noundef %5)
  %.not36 = icmp eq i32 %30, 0
  br i1 %.not36, label %35, label %31

31:                                               ; preds = %29
  %32 = add nsw i32 %.03350, 1
  %33 = tail call fastcc i32 @check_cert_path_3gpp(ptr noundef %0, ptr noundef %5, ptr noundef %28)
  %.not39 = icmp eq i32 %33, 0
  br i1 %.not39, label %35, label %check_cert_path.exit

check_cert_path.exit:                             ; preds = %31, %17
  %.us-phi = phi ptr [ %14, %17 ], [ %28, %31 ]
  %34 = tail call i32 @ossl_cmp_ctx_set1_validatedSrvCert(ptr noundef nonnull %0, ptr noundef nonnull %.us-phi) #3
  br label %.loopexit

35:                                               ; preds = %29, %31
  %.134.ph = phi i32 [ %32, %31 ], [ %.03350, %29 ]
  %36 = add nuw nsw i32 %.03251, 1
  %37 = tail call i32 @OPENSSL_sk_num(ptr noundef %1) #3
  %38 = icmp slt i32 %36, %37
  br i1 %38, label %.lr.ph.split, label %._crit_edge, !llvm.loop !76

._crit_edge:                                      ; preds = %35, %22, %.preheader
  %.033.lcssa = phi i32 [ 0, %.preheader ], [ %.134.ph.us, %22 ], [ %.134.ph, %35 ]
  %39 = icmp eq i32 %.033.lcssa, 0
  %or.cond = select i1 %8, i1 %39, i1 false
  br i1 %or.cond, label %40, label %.loopexit

40:                                               ; preds = %._crit_edge
  %41 = tail call i32 (i32, ptr, ptr, ptr, i32, ptr, ptr, ...) @ossl_cmp_print_log(i32 noundef 4, ptr noundef nonnull %0, ptr noundef nonnull @__func__.check_msg_with_certs, ptr noundef nonnull @.str, i32 noundef 413, ptr noundef nonnull @.str.7, ptr noundef nonnull @.str.2, ptr noundef nonnull @.str.56) #3
  br label %.loopexit

.loopexit:                                        ; preds = %.lr.ph.split, %.lr.ph.split.us, %check_cert_path.exit, %._crit_edge, %40, %26
  %.0 = phi i32 [ 0, %26 ], [ 0, %40 ], [ 0, %._crit_edge ], [ %34, %check_cert_path.exit ], [ 0, %.lr.ph.split.us ], [ 0, %.lr.ph.split ]
  ret i32 %.0
}